target datalayout = "e-m:e-p270:32:32-p271:32:32-p272:64:64-i64:64-i128:128-f80:128-n8:16:32:64-S128"
target triple = "x86_64-pc-linux-gnu"

; Function Attrs: nounwind uwtable
define hidden i32 @zend_optimizer_eval_binary_op(ptr noundef %0, i8 noundef zeroext %1, ptr noundef %2, ptr noundef %3) #0 {
  %5 = alloca i32, align 4
  %6 = alloca ptr, align 8
  %7 = alloca i8, align 1
  %8 = alloca ptr, align 8
  %9 = alloca ptr, align 8
  %10 = alloca ptr, align 8
  store ptr %0, ptr %6, align 8, !tbaa !9
  store i8 %1, ptr %7, align 1, !tbaa !17
  store ptr %2, ptr %8, align 8, !tbaa !9
  store ptr %3, ptr %9, align 8, !tbaa !9
  %11 = load i8, ptr %7, align 1, !tbaa !17
  %12 = zext i8 %11 to i32
  %13 = load ptr, ptr %8, align 8, !tbaa !9
  %14 = load ptr, ptr %9, align 8, !tbaa !9
  %15 = call zeroext i1 @zend_binary_op_produces_error(i32 noundef %12, ptr noundef %13, ptr noundef %14)
  br i1 %15, label %16, label %17

16:                                               ; preds = %4
  store i32 -1, ptr %5, align 4
  br label %26

17:                                               ; preds = %4
  call void @llvm.lifetime.start.p0(i64 8, ptr %10) #13
  %18 = load i8, ptr %7, align 1, !tbaa !17
  %19 = zext i8 %18 to i32
  %20 = call ptr @get_binary_op(i32 noundef %19)
  store ptr %20, ptr %10, align 8, !tbaa !28
  %21 = load ptr, ptr %10, align 8, !tbaa !28
  %22 = load ptr, ptr %6, align 8, !tbaa !9
  %23 = load ptr, ptr %8, align 8, !tbaa !9
  %24 = load ptr, ptr %9, align 8, !tbaa !9
  %25 = call i32 %21(ptr noundef %22, ptr noundef %23, ptr noundef %24)
  store i32 %25, ptr %5, align 4
  call void @llvm.lifetime.end.p0(i64 8, ptr %10) #13
  br label %26

26:                                               ; preds = %17, %16
  %27 = load i32, ptr %5, align 4
  ret i32 %27
}