; Function Attrs: nounwind uwtable
define hidden i32 @zend_optimizer_eval_binary_op(ptr noundef %0, i8 noundef zeroext %1, ptr noundef %2, ptr noundef %3) local_unnamed_addr #0 {
  %5 = zext i8 %1 to i32
  %6 = tail call zeroext i1 @zend_binary_op_produces_error(i32 noundef %5, ptr noundef %2, ptr noundef %3) #20
  br i1 %6, label %10, label %7

7:                                                ; preds = %4
  %8 = tail call ptr @get_binary_op(i32 noundef %5) #20
  %9 = tail call i32 %8(ptr noundef %0, ptr noundef %2, ptr noundef %3) #20
  br label %10

10:                                               ; preds = %4, %7
  %.0 = phi i32 [ %9, %7 ], [ -1, %4 ]
  ret i32 %.0
}